; Function Attrs: nounwind sspstrong uwtable
define internal void @tpm_passthrough_inst_init(ptr noundef %obj) #0 {
entry:
  %call.i = tail call ptr @object_dynamic_cast_assert(ptr noundef %obj, ptr noundef nonnull @.str, ptr noundef nonnull @.str.2, i32 noundef 38, ptr noundef nonnull @__func__.TPM_PASSTHROUGH) #11
  %call1 = tail call noalias dereferenceable_or_null(16) ptr @g_malloc0_n(i64 noundef 1, i64 noundef 16) #12
  %options = getelementptr inbounds nuw i8, ptr %call.i, i64 88
  store ptr %call1, ptr %options, align 8
  %tpm_fd = getelementptr inbounds nuw i8, ptr %call.i, i64 104
  store i32 -1, ptr %tpm_fd, align 8
  %cancel_fd = getelementptr inbounds nuw i8, ptr %call.i, i64 112
  store i32 -1, ptr %cancel_fd, align 8
  ret void
}